target datalayout = "e-m:e-p270:32:32-p271:32:32-p272:64:64-i64:64-i128:128-f80:128-n8:16:32:64-S128"
target triple = "x86_64-pc-linux-gnu"

%struct.CompressLegacyState = type { i32 }

@g_displayLevel = internal global i32 0, align 4
@stderr = external global ptr, align 8
@.str = private unnamed_addr constant [12 x i8] c"Error %i : \00", align 1
@.str.2 = private unnamed_addr constant [3 x i8] c" \0A\00", align 1
@.str.47 = private unnamed_addr constant [24 x i8] c"fast compression failed\00", align 1

; Function Attrs: nounwind uwtable
define internal void @LZ4IO_writeLE32(ptr noundef %0, i32 noundef %1) #0 {
  %3 = alloca ptr, align 8
  %4 = alloca i32, align 4
  %5 = alloca ptr, align 8
  store ptr %0, ptr %3, align 8, !tbaa !41
  store i32 %1, ptr %4, align 4, !tbaa !9
  call void @llvm.lifetime.start.p0(i64 8, ptr %5) #13
  %6 = load ptr, ptr %3, align 8, !tbaa !41
  store ptr %6, ptr %5, align 8, !tbaa !31
  %7 = load i32, ptr %4, align 4, !tbaa !9
  %8 = trunc i32 %7 to i8
  %9 = load ptr, ptr %5, align 8, !tbaa !31
  %10 = getelementptr inbounds i8, ptr %9, i64 0
  store i8 %8, ptr %10, align 1, !tbaa !78
  %11 = load i32, ptr %4, align 4, !tbaa !9
  %12 = lshr i32 %11, 8
  %13 = trunc i32 %12 to i8
  %14 = load ptr, ptr %5, align 8, !tbaa !31
  %15 = getelementptr inbounds i8, ptr %14, i64 1
  store i8 %13, ptr %15, align 1, !tbaa !78
  %16 = load i32, ptr %4, align 4, !tbaa !9
  %17 = lshr i32 %16, 16
  %18 = trunc i32 %17 to i8
  %19 = load ptr, ptr %5, align 8, !tbaa !31
  %20 = getelementptr inbounds i8, ptr %19, i64 2
  store i8 %18, ptr %20, align 1, !tbaa !78
  %21 = load i32, ptr %4, align 4, !tbaa !9
  %22 = lshr i32 %21, 24
  %23 = trunc i32 %22 to i8
  %24 = load ptr, ptr %5, align 8, !tbaa !31
  %25 = getelementptr inbounds i8, ptr %24, i64 3
  store i8 %23, ptr %25, align 1, !tbaa !78
  call void @llvm.lifetime.end.p0(i64 8, ptr %5) #13
  ret void
}

; Function Attrs: nounwind uwtable
define internal i64 @LZ4IO_compressBlockLegacy_fast(ptr noundef %0, ptr noundef %1, i64 noundef %2, ptr noundef %3, i64 noundef %4, i64 noundef %5) #0 {
  %7 = alloca ptr, align 8
  %8 = alloca ptr, align 8
  %9 = alloca i64, align 8
  %10 = alloca ptr, align 8
  %11 = alloca i64, align 8
  %12 = alloca i64, align 8
  %13 = alloca ptr, align 8
  %14 = alloca i32, align 4
  %15 = alloca i32, align 4
  store ptr %0, ptr %7, align 8, !tbaa !41
  store ptr %1, ptr %8, align 8, !tbaa !41
  store i64 %2, ptr %9, align 8, !tbaa !32
  store ptr %3, ptr %10, align 8, !tbaa !41
  store i64 %4, ptr %11, align 8, !tbaa !32
  store i64 %5, ptr %12, align 8, !tbaa !32
  call void @llvm.lifetime.start.p0(i64 8, ptr %13) #13
  %16 = load ptr, ptr %7, align 8, !tbaa !41
  store ptr %16, ptr %13, align 8, !tbaa !41
  call void @llvm.lifetime.start.p0(i64 4, ptr %14) #13
  %17 = load ptr, ptr %13, align 8, !tbaa !41
  %18 = getelementptr inbounds nuw %struct.CompressLegacyState, ptr %17, i32 0, i32 0
  %19 = load i32, ptr %18, align 4, !tbaa !47
  %20 = icmp slt i32 %19, 0
  br i1 %20, label %21, label %26

21:                                               ; preds = %6
  %22 = load ptr, ptr %13, align 8, !tbaa !41
  %23 = getelementptr inbounds nuw %struct.CompressLegacyState, ptr %22, i32 0, i32 0
  %24 = load i32, ptr %23, align 4, !tbaa !47
  %25 = sub nsw i32 0, %24
  br label %27

26:                                               ; preds = %6
  br label %27

27:                                               ; preds = %26, %21
  %28 = phi i32 [ %25, %21 ], [ 0, %26 ]
  store i32 %28, ptr %14, align 4, !tbaa !9
  call void @llvm.lifetime.start.p0(i64 4, ptr %15) #13
  %29 = load ptr, ptr %10, align 8, !tbaa !41
  %30 = load ptr, ptr %8, align 8, !tbaa !41
  %31 = getelementptr inbounds i8, ptr %30, i64 4
  %32 = load i64, ptr %11, align 8, !tbaa !32
  %33 = trunc i64 %32 to i32
  %34 = load i64, ptr %9, align 8, !tbaa !32
  %35 = trunc i64 %34 to i32
  %36 = load i32, ptr %14, align 4, !tbaa !9
  %37 = call i32 @LZ4_compress_fast(ptr noundef %29, ptr noundef %31, i32 noundef %33, i32 noundef %35, i32 noundef %36)
  store i32 %37, ptr %15, align 4, !tbaa !9
  %38 = load i32, ptr %15, align 4, !tbaa !9
  %39 = icmp slt i32 %38, 0
  br i1 %39, label %40, label %78

40:                                               ; preds = %27
  %41 = load i32, ptr @g_displayLevel, align 4, !tbaa !9
  %42 = icmp sge i32 %41, 1
  br i1 %42, label %43, label %52

43:                                               ; preds = %40
  %44 = load ptr, ptr @stderr, align 8, !tbaa !11
  %45 = call i32 (ptr, ptr, ...) @fprintf(ptr noundef %44, ptr noundef @.str, i32 noundef 51) #13
  %46 = load i32, ptr @g_displayLevel, align 4, !tbaa !9
  %47 = icmp sge i32 %46, 4
  br i1 %47, label %48, label %51

48:                                               ; preds = %43
  %49 = load ptr, ptr @stderr, align 8, !tbaa !11
  %50 = call i32 @fflush(ptr noundef %49)
  br label %51

51:                                               ; preds = %48, %43
  br label %52

52:                                               ; preds = %51, %40
  %53 = load i32, ptr @g_displayLevel, align 4, !tbaa !9
  %54 = icmp sge i32 %53, 1
  br i1 %54, label %55, label %64

55:                                               ; preds = %52
  %56 = load ptr, ptr @stderr, align 8, !tbaa !11
  %57 = call i32 (ptr, ptr, ...) @fprintf(ptr noundef %56, ptr noundef @.str.47) #13
  %58 = load i32, ptr @g_displayLevel, align 4, !tbaa !9
  %59 = icmp sge i32 %58, 4
  br i1 %59, label %60, label %63

60:                                               ; preds = %55
  %61 = load ptr, ptr @stderr, align 8, !tbaa !11
  %62 = call i32 @fflush(ptr noundef %61)
  br label %63

63:                                               ; preds = %60, %55
  br label %64

64:                                               ; preds = %63, %52
  %65 = load i32, ptr @g_displayLevel, align 4, !tbaa !9
  %66 = icmp sge i32 %65, 1
  br i1 %66, label %67, label %76

67:                                               ; preds = %64
  %68 = load ptr, ptr @stderr, align 8, !tbaa !11
  %69 = call i32 (ptr, ptr, ...) @fprintf(ptr noundef %68, ptr noundef @.str.2) #13
  %70 = load i32, ptr @g_displayLevel, align 4, !tbaa !9
  %71 = icmp sge i32 %70, 4
  br i1 %71, label %72, label %75

72:                                               ; preds = %67
  %73 = load ptr, ptr @stderr, align 8, !tbaa !11
  %74 = call i32 @fflush(ptr noundef %73)
  br label %75

75:                                               ; preds = %72, %67
  br label %76

76:                                               ; preds = %75, %64
  %77 = call i32 @fflush(ptr noundef null)
  call void @exit(i32 noundef 51) #15
  unreachable

78:                                               ; preds = %27
  %79 = load ptr, ptr %8, align 8, !tbaa !41
  %80 = load i32, ptr %15, align 4, !tbaa !9
  call void @LZ4IO_writeLE32(ptr noundef %79, i32 noundef %80)
  %81 = load i32, ptr %15, align 4, !tbaa !9
  %82 = sext i32 %81 to i64
  %83 = add i64 %82, 4
  call void @llvm.lifetime.end.p0(i64 4, ptr %15) #13
  call void @llvm.lifetime.end.p0(i64 4, ptr %14) #13
  call void @llvm.lifetime.end.p0(i64 8, ptr %13) #13
  ret i64 %83
}