; Function Attrs: nounwind uwtable
define internal range(i64 4, 2147483652) i64 @LZ4IO_compressBlockLegacy_fast(ptr noundef readonly captures(none) %0, ptr noundef %1, i64 noundef %2, ptr noundef %3, i64 noundef %4, i64 %5) #11 {
  %7 = load i32, ptr %0, align 4, !tbaa !42
  %8 = icmp slt i32 %7, 0
  %9 = sub nsw i32 0, %7
  %spec.select = select i1 %8, i32 %9, i32 0
  %10 = getelementptr inbounds nuw i8, ptr %1, i64 4
  %11 = trunc i64 %4 to i32
  %12 = trunc i64 %2 to i32
  %13 = tail call i32 @LZ4_compress_fast(ptr noundef %3, ptr noundef nonnull %10, i32 noundef %11, i32 noundef %12, i32 noundef %spec.select) #24
  %14 = icmp slt i32 %13, 0
  br i1 %14, label %15, label %48

15:                                               ; preds = %6
  %16 = load i32, ptr @g_displayLevel, align 4, !tbaa !4
  %17 = icmp sgt i32 %16, 0
  br i1 %17, label %18, label %.thread13

18:                                               ; preds = %15
  %19 = load ptr, ptr @stderr, align 8, !tbaa !8
  %20 = tail call i32 (ptr, ptr, ...) @fprintf(ptr noundef %19, ptr noundef nonnull @.str, i32 noundef 51) #26
  %21 = load i32, ptr @g_displayLevel, align 4, !tbaa !4
  %22 = icmp sgt i32 %21, 3
  br i1 %22, label %23, label %26

23:                                               ; preds = %18
  %24 = load ptr, ptr @stderr, align 8, !tbaa !8
  %25 = tail call i32 @fflush(ptr noundef %24)
  %.pr = load i32, ptr @g_displayLevel, align 4, !tbaa !4
  br label %26

26:                                               ; preds = %18, %23
  %27 = phi i32 [ %21, %18 ], [ %.pr, %23 ]
  %28 = icmp sgt i32 %27, 0
  br i1 %28, label %29, label %.thread13

29:                                               ; preds = %26
  %30 = load ptr, ptr @stderr, align 8, !tbaa !8
  %31 = tail call i64 @fwrite(ptr nonnull @.str.47, i64 23, i64 1, ptr %30) #27
  %32 = load i32, ptr @g_displayLevel, align 4, !tbaa !4
  %33 = icmp sgt i32 %32, 3
  br i1 %33, label %34, label %thread-pre-split

34:                                               ; preds = %29
  %35 = load ptr, ptr @stderr, align 8, !tbaa !8
  %36 = tail call i32 @fflush(ptr noundef %35)
  %.pr12.pre = load i32, ptr @g_displayLevel, align 4, !tbaa !4
  br label %thread-pre-split

thread-pre-split:                                 ; preds = %34, %29
  %37 = phi i32 [ %32, %29 ], [ %.pr12.pre, %34 ]
  %38 = icmp sgt i32 %37, 0
  br i1 %38, label %39, label %.thread13

39:                                               ; preds = %thread-pre-split
  %40 = load ptr, ptr @stderr, align 8, !tbaa !8
  %41 = tail call i64 @fwrite(ptr nonnull @.str.2, i64 2, i64 1, ptr %40) #27
  %42 = load i32, ptr @g_displayLevel, align 4, !tbaa !4
  %43 = icmp sgt i32 %42, 3
  br i1 %43, label %44, label %.thread13

44:                                               ; preds = %39
  %45 = load ptr, ptr @stderr, align 8, !tbaa !8
  %46 = tail call i32 @fflush(ptr noundef %45)
  br label %.thread13

.thread13:                                        ; preds = %26, %15, %39, %44, %thread-pre-split
  %47 = tail call i32 @fflush(ptr noundef null)
  tail call void @exit(i32 noundef 51) #28
  unreachable

48:                                               ; preds = %6
  %49 = trunc i32 %13 to i8
  store i8 %49, ptr %1, align 1, !tbaa !40
  %50 = lshr i32 %13, 8
  %51 = trunc i32 %50 to i8
  %52 = getelementptr inbounds nuw i8, ptr %1, i64 1
  store i8 %51, ptr %52, align 1, !tbaa !40
  %53 = lshr i32 %13, 16
  %54 = trunc i32 %53 to i8
  %55 = getelementptr inbounds nuw i8, ptr %1, i64 2
  store i8 %54, ptr %55, align 1, !tbaa !40
  %56 = lshr i32 %13, 24
  %57 = trunc nuw i32 %56 to i8
  %58 = getelementptr inbounds nuw i8, ptr %1, i64 3
  store i8 %57, ptr %58, align 1, !tbaa !40
  %narrow = add nuw i32 %13, 4
  %59 = zext i32 %narrow to i64
  ret i64 %59
}